target datalayout = "e-m:e-p270:32:32-p271:32:32-p272:64:64-i64:64-i128:128-f80:128-n8:16:32:64-S128"
target triple = "x86_64-pc-linux-gnu"

%struct.archive_write = type { %struct.archive, i32, i64, i64, ptr, i64, ptr, ptr, ptr, ptr, ptr, i32, i32, ptr, ptr, ptr, ptr, ptr, ptr, ptr, ptr, ptr, ptr, ptr, ptr, ptr, ptr }
%struct.archive = type { i32, i32, ptr, i32, ptr, i32, i32, ptr, %struct.archive_string, ptr, i32, i32, ptr, ptr, i64, i64, i64, i8, i64 }
%struct.archive_string = type { ptr, i64, i64 }
%struct.archive_write_filter = type { i64, ptr, ptr, ptr, ptr, ptr, ptr, ptr, ptr, ptr, ptr, i32, i32, i32, i32 }

@.str = private unnamed_addr constant [34 x i8] c"archive_write_add_filter_compress\00", align 1
@.str.1 = private unnamed_addr constant [9 x i8] c"compress\00", align 1

; Function Attrs: nounwind uwtable
define dso_local i32 @archive_write_add_filter_compress(ptr noundef %0) #0 {
  %2 = alloca i32, align 4
  %3 = alloca ptr, align 8
  %4 = alloca ptr, align 8
  %5 = alloca ptr, align 8
  %6 = alloca i32, align 4
  %7 = alloca i32, align 4
  store ptr %0, ptr %3, align 8, !tbaa !4
  call void @llvm.lifetime.start.p0(i64 8, ptr %4) #7
  %8 = load ptr, ptr %3, align 8, !tbaa !4
  store ptr %8, ptr %4, align 8, !tbaa !9
  call void @llvm.lifetime.start.p0(i64 8, ptr %5) #7
  %9 = load ptr, ptr %3, align 8, !tbaa !4
  %10 = call ptr @__archive_write_allocate_filter(ptr noundef %9)
  store ptr %10, ptr %5, align 8, !tbaa !11
  br label %11

11:                                               ; preds = %1
  call void @llvm.lifetime.start.p0(i64 4, ptr %6) #7
  %12 = load ptr, ptr %4, align 8, !tbaa !9
  %13 = getelementptr inbounds nuw %struct.archive_write, ptr %12, i32 0, i32 0
  %14 = call i32 @__archive_check_magic(ptr noundef %13, i32 noundef -1329217314, i32 noundef 1, ptr noundef @.str)
  store i32 %14, ptr %6, align 4, !tbaa !13
  %15 = load i32, ptr %6, align 4, !tbaa !13
  %16 = icmp eq i32 %15, -30
  br i1 %16, label %17, label %18

17:                                               ; preds = %11
  store i32 -30, ptr %2, align 4
  store i32 1, ptr %7, align 4
  br label %19

18:                                               ; preds = %11
  store i32 0, ptr %7, align 4
  br label %19

19:                                               ; preds = %18, %17
  call void @llvm.lifetime.end.p0(i64 4, ptr %6) #7
  %20 = load i32, ptr %7, align 4
  switch i32 %20, label %30 [
    i32 0, label %21
  ]

21:                                               ; preds = %19
  br label %22

22:                                               ; preds = %21
  br label %23

23:                                               ; preds = %22
  %24 = load ptr, ptr %5, align 8, !tbaa !11
  %25 = getelementptr inbounds nuw %struct.archive_write_filter, ptr %24, i32 0, i32 4
  store ptr @archive_compressor_compress_open, ptr %25, align 8, !tbaa !15
  %26 = load ptr, ptr %5, align 8, !tbaa !11
  %27 = getelementptr inbounds nuw %struct.archive_write_filter, ptr %26, i32 0, i32 11
  store i32 3, ptr %27, align 8, !tbaa !19
  %28 = load ptr, ptr %5, align 8, !tbaa !11
  %29 = getelementptr inbounds nuw %struct.archive_write_filter, ptr %28, i32 0, i32 10
  store ptr @.str.1, ptr %29, align 8, !tbaa !20
  store i32 0, ptr %2, align 4
  store i32 1, ptr %7, align 4
  br label %30

30:                                               ; preds = %23, %19
  call void @llvm.lifetime.end.p0(i64 8, ptr %5) #7
  call void @llvm.lifetime.end.p0(i64 8, ptr %4) #7
  %31 = load i32, ptr %2, align 4
  ret i32 %31
}