; Function Attrs: nounwind uwtable
define dso_local range(i32 -30, 1) i32 @archive_write_add_filter_compress(ptr noundef %0) local_unnamed_addr #0 {
  %2 = tail call ptr @__archive_write_allocate_filter(ptr noundef %0) #7
  %3 = tail call i32 @__archive_check_magic(ptr noundef %0, i32 noundef -1329217314, i32 noundef 1, ptr noundef nonnull @.str) #7
  %.not = icmp eq i32 %3, -30
  br i1 %.not, label %8, label %4

4:                                                ; preds = %1
  %5 = getelementptr inbounds nuw i8, ptr %2, i64 32
  store ptr @archive_compressor_compress_open, ptr %5, align 8, !tbaa !4
  %6 = getelementptr inbounds nuw i8, ptr %2, i64 88
  store i32 3, ptr %6, align 8, !tbaa !14
  %7 = getelementptr inbounds nuw i8, ptr %2, i64 80
  store ptr @.str.1, ptr %7, align 8, !tbaa !15
  br label %8

8:                                                ; preds = %1, %4
  %.1 = phi i32 [ 0, %4 ], [ -30, %1 ]
  ret i32 %.1
}